target datalayout = "e-m:e-p270:32:32-p271:32:32-p272:64:64-i64:64-i128:128-f80:128-n8:16:32:64-S128"
target triple = "x86_64-pc-linux-gnu"

%struct.llhttp__internal_s = type { i32, ptr, ptr, i32, ptr, ptr, ptr, ptr, i64, i8, i8, i8, i8, i8, i16, i8, i8, i16, i16, i8, ptr }

; Function Attrs: nounwind uwtable
define void @llhttp_set_lenient_data_after_close(ptr noundef %0, i32 noundef %1) #0 {
  %3 = alloca ptr, align 8
  %4 = alloca i32, align 4
  store ptr %0, ptr %3, align 8, !tbaa !3
  store i32 %1, ptr %4, align 4, !tbaa !8
  %5 = load i32, ptr %4, align 4, !tbaa !8
  %6 = icmp ne i32 %5, 0
  br i1 %6, label %7, label %14

7:                                                ; preds = %2
  %8 = load ptr, ptr %3, align 8, !tbaa !3
  %9 = getelementptr inbounds nuw %struct.llhttp__internal_s, ptr %8, i32 0, i32 14
  %10 = load i16, ptr %9, align 2, !tbaa !25
  %11 = zext i16 %10 to i32
  %12 = or i32 %11, 32
  %13 = trunc i32 %12 to i16
  store i16 %13, ptr %9, align 2, !tbaa !25
  br label %21

14:                                               ; preds = %2
  %15 = load ptr, ptr %3, align 8, !tbaa !3
  %16 = getelementptr inbounds nuw %struct.llhttp__internal_s, ptr %15, i32 0, i32 14
  %17 = load i16, ptr %16, align 2, !tbaa !25
  %18 = zext i16 %17 to i32
  %19 = and i32 %18, -33
  %20 = trunc i32 %19 to i16
  store i16 %20, ptr %16, align 2, !tbaa !25
  br label %21

21:                                               ; preds = %14, %7
  ret void
}